target datalayout = "e-m:e-p270:32:32-p271:32:32-p272:64:64-i64:64-i128:128-f80:128-n8:16:32:64-S128"
target triple = "x86_64-pc-linux-gnu"

%struct.mbim_uuid_info_ = type { ptr, ptr, ptr }
%struct.mbim_uuid_ext = type { [4 x i32], ptr, ptr, ptr, ptr }
%struct.nstime_t = type { i64, i32 }
%struct._packet_info = type { ptr, ptr, i32, i32, %struct.nstime_t, %struct.nstime_t, %struct.nstime_t, i32, ptr, ptr, ptr, ptr, %struct._address, %struct._address, %struct._address, %struct._address, %struct._address, %struct._address, i32, ptr, i32, %struct.anon.0, i32, i32, i32, i32, ptr, i32, ptr, ptr, i16, i16, i32, i32, i16, i32, i32, ptr, ptr, ptr, i8, i8, i16, i16, i16, i32, i16, i16, ptr, ptr, ptr, ptr, ptr, i32 }
%struct._address = type { i32, i32, ptr, ptr }
%struct.anon.0 = type { i8, [3 x i8] }
%struct.mbim_pair_list = type { i32, i32 }

@hf_mbim_device_service_element_device_service_id = internal global i32 0, align 4
@hf_mbim_device_service_element_dss_payload = internal global i32 0, align 4
@hf_mbim_device_service_element_max_dss_instances = internal global i32 0, align 4
@hf_mbim_device_service_element_cid_count = internal global i32 0, align 4
@hf_mbim_device_service_element_cid = internal global i32 0, align 4
@hf_mbim_device_services_info_device_services_count = internal global i32 0, align 4
@hf_mbim_device_services_info_max_dss_sessions = internal global i32 0, align 4
@hf_mbim_device_services_info_device_services_offset = internal global i32 0, align 4
@hf_mbim_device_services_info_device_services_size = internal global i32 0, align 4
@ett_mbim_bitmap = internal global i32 0, align 4
@ett_mbim_pair_list = internal global i32 0, align 4
@.str.1966 = private unnamed_addr constant [8 x i8] c"Unknown\00", align 1
@.str.2531 = private unnamed_addr constant [8 x i8] c"%s (%u)\00", align 1
@.str.2564 = private unnamed_addr constant [27 x i8] c"Device Service Element #%u\00", align 1
@.str.2590 = private unnamed_addr constant [25 x i8] c"Device Services Ref List\00", align 1
@mbim_device_service_element_dss_payload_fields = internal constant [3 x ptr] [ptr @hf_mbim_device_service_element_dss_payload_host_device, ptr @hf_mbim_device_service_element_dss_payload_device_host, ptr null], align 16

; Function Attrs: nounwind uwtable
define internal void @mbim_dissect_device_service_element(ptr noundef %0, ptr noundef %1, ptr noundef %2, i32 noundef %3) #0 {
  %5 = alloca ptr, align 8
  %6 = alloca ptr, align 8
  %7 = alloca ptr, align 8
  %8 = alloca i32, align 4
  %9 = alloca i8, align 1
  %10 = alloca i32, align 4
  %11 = alloca i32, align 4
  %12 = alloca i32, align 4
  %13 = alloca ptr, align 8
  store ptr %0, ptr %5, align 8
  store ptr %1, ptr %6, align 8
  store ptr %2, ptr %7, align 8
  store i32 %3, ptr %8, align 4
  store ptr null, ptr %13, align 8
  %14 = load ptr, ptr %5, align 8
  %15 = load ptr, ptr %6, align 8
  %16 = load ptr, ptr %7, align 8
  %17 = load i32, ptr @hf_mbim_device_service_element_device_service_id, align 4
  %18 = call zeroext i8 @mbim_dissect_service_id_uuid(ptr noundef %14, ptr noundef %15, ptr noundef %16, i32 noundef %17, ptr noundef %8, ptr noundef %13, i32 noundef 1)
  store i8 %18, ptr %9, align 1
  %19 = load ptr, ptr %7, align 8
  %20 = load ptr, ptr %5, align 8
  %21 = load i32, ptr %8, align 4
  %22 = load i32, ptr @hf_mbim_device_service_element_dss_payload, align 4
  %23 = load i32, ptr @ett_mbim_bitmap, align 4
  %24 = call ptr @proto_tree_add_bitmask(ptr noundef %19, ptr noundef %20, i32 noundef %21, i32 noundef %22, i32 noundef %23, ptr noundef @mbim_device_service_element_dss_payload_fields, i32 noundef -2147483648)
  %25 = load i32, ptr %8, align 4
  %26 = add i32 %25, 4
  store i32 %26, ptr %8, align 4
  %27 = load ptr, ptr %7, align 8
  %28 = load i32, ptr @hf_mbim_device_service_element_max_dss_instances, align 4
  %29 = load ptr, ptr %5, align 8
  %30 = load i32, ptr %8, align 4
  %31 = call ptr @proto_tree_add_item(ptr noundef %27, i32 noundef %28, ptr noundef %29, i32 noundef %30, i32 noundef 4, i32 noundef -2147483648)
  %32 = load i32, ptr %8, align 4
  %33 = add i32 %32, 4
  store i32 %33, ptr %8, align 4
  %34 = load ptr, ptr %7, align 8
  %35 = load i32, ptr @hf_mbim_device_service_element_cid_count, align 4
  %36 = load ptr, ptr %5, align 8
  %37 = load i32, ptr %8, align 4
  %38 = call ptr @proto_tree_add_item_ret_uint(ptr noundef %34, i32 noundef %35, ptr noundef %36, i32 noundef %37, i32 noundef 4, i32 noundef -2147483648, ptr noundef %11)
  %39 = load i32, ptr %8, align 4
  %40 = add i32 %39, 4
  store i32 %40, ptr %8, align 4
  store i32 0, ptr %10, align 4
  br label %41

41:                                               ; preds = %118, %4
  %42 = load i32, ptr %10, align 4
  %43 = load i32, ptr %11, align 4
  %44 = icmp ult i32 %42, %43
  br i1 %44, label %45, label %121

45:                                               ; preds = %41
  %46 = load ptr, ptr %5, align 8
  %47 = load i32, ptr %8, align 4
  %48 = call i32 @tvb_get_letohl(ptr noundef %46, i32 noundef %47)
  store i32 %48, ptr %12, align 4
  %49 = load i8, ptr %9, align 1
  %50 = zext i8 %49 to i32
  %51 = icmp slt i32 %50, 25
  br i1 %51, label %52, label %90

52:                                               ; preds = %45
  %53 = load i8, ptr %9, align 1
  %54 = zext i8 %53 to i64
  %55 = getelementptr [25 x %struct.mbim_uuid_info_], ptr @mbim_uuid_info, i64 0, i64 %54
  %56 = getelementptr inbounds %struct.mbim_uuid_info_, ptr %55, i32 0, i32 2
  %57 = load ptr, ptr %56, align 8
  %58 = icmp ne ptr %57, null
  br i1 %58, label %59, label %74

59:                                               ; preds = %52
  %60 = load ptr, ptr %7, align 8
  %61 = load i32, ptr @hf_mbim_device_service_element_cid, align 4
  %62 = load ptr, ptr %5, align 8
  %63 = load i32, ptr %8, align 4
  %64 = load i32, ptr %12, align 4
  %65 = load i32, ptr %12, align 4
  %66 = load i8, ptr %9, align 1
  %67 = zext i8 %66 to i64
  %68 = getelementptr [25 x %struct.mbim_uuid_info_], ptr @mbim_uuid_info, i64 0, i64 %67
  %69 = getelementptr inbounds %struct.mbim_uuid_info_, ptr %68, i32 0, i32 2
  %70 = load ptr, ptr %69, align 8
  %71 = call ptr @val_to_str_ext_const(i32 noundef %65, ptr noundef %70, ptr noundef @.str.1966)
  %72 = load i32, ptr %12, align 4
  %73 = call ptr (ptr, i32, ptr, i32, i32, i32, ptr, ...) @proto_tree_add_uint_format_value(ptr noundef %60, i32 noundef %61, ptr noundef %62, i32 noundef %63, i32 noundef 4, i32 noundef %64, ptr noundef @.str.2531, ptr noundef %71, i32 noundef %72)
  br label %89

74:                                               ; preds = %52
  %75 = load ptr, ptr %7, align 8
  %76 = load i32, ptr @hf_mbim_device_service_element_cid, align 4
  %77 = load ptr, ptr %5, align 8
  %78 = load i32, ptr %8, align 4
  %79 = load i32, ptr %12, align 4
  %80 = load i32, ptr %12, align 4
  %81 = load i8, ptr %9, align 1
  %82 = zext i8 %81 to i64
  %83 = getelementptr [25 x %struct.mbim_uuid_info_], ptr @mbim_uuid_info, i64 0, i64 %82
  %84 = getelementptr inbounds %struct.mbim_uuid_info_, ptr %83, i32 0, i32 1
  %85 = load ptr, ptr %84, align 8
  %86 = call ptr @val_to_str_const(i32 noundef %80, ptr noundef %85, ptr noundef @.str.1966)
  %87 = load i32, ptr %12, align 4
  %88 = call ptr (ptr, i32, ptr, i32, i32, i32, ptr, ...) @proto_tree_add_uint_format_value(ptr noundef %75, i32 noundef %76, ptr noundef %77, i32 noundef %78, i32 noundef 4, i32 noundef %79, ptr noundef @.str.2531, ptr noundef %86, i32 noundef %87)
  br label %89

89:                                               ; preds = %74, %59
  br label %115

90:                                               ; preds = %45
  %91 = load i8, ptr %9, align 1
  %92 = zext i8 %91 to i32
  %93 = icmp eq i32 %92, 255
  br i1 %93, label %94, label %107

94:                                               ; preds = %90
  %95 = load ptr, ptr %7, align 8
  %96 = load i32, ptr @hf_mbim_device_service_element_cid, align 4
  %97 = load ptr, ptr %5, align 8
  %98 = load i32, ptr %8, align 4
  %99 = load i32, ptr %12, align 4
  %100 = load i32, ptr %12, align 4
  %101 = load ptr, ptr %13, align 8
  %102 = getelementptr inbounds %struct.mbim_uuid_ext, ptr %101, i32 0, i32 2
  %103 = load ptr, ptr %102, align 8
  %104 = call ptr @val_to_str_const(i32 noundef %100, ptr noundef %103, ptr noundef @.str.1966)
  %105 = load i32, ptr %12, align 4
  %106 = call ptr (ptr, i32, ptr, i32, i32, i32, ptr, ...) @proto_tree_add_uint_format_value(ptr noundef %95, i32 noundef %96, ptr noundef %97, i32 noundef %98, i32 noundef 4, i32 noundef %99, ptr noundef @.str.2531, ptr noundef %104, i32 noundef %105)
  br label %114

107:                                              ; preds = %90
  %108 = load ptr, ptr %7, align 8
  %109 = load i32, ptr @hf_mbim_device_service_element_cid, align 4
  %110 = load ptr, ptr %5, align 8
  %111 = load i32, ptr %8, align 4
  %112 = load i32, ptr %12, align 4
  %113 = call ptr @proto_tree_add_uint(ptr noundef %108, i32 noundef %109, ptr noundef %110, i32 noundef %111, i32 noundef 4, i32 noundef %112)
  br label %114

114:                                              ; preds = %107, %94
  br label %115

115:                                              ; preds = %114, %89
  %116 = load i32, ptr %8, align 4
  %117 = add i32 %116, 4
  store i32 %117, ptr %8, align 4
  br label %118

118:                                              ; preds = %115
  %119 = load i32, ptr %10, align 4
  %120 = add i32 %119, 1
  store i32 %120, ptr %10, align 4
  br label %41, !llvm.loop !79

121:                                              ; preds = %41
  ret void
}

; Function Attrs: nounwind uwtable
define internal void @mbim_dissect_device_services_info(ptr noundef %0, ptr noundef %1, ptr noundef %2, i32 noundef %3) #0 {
  %5 = alloca ptr, align 8
  %6 = alloca ptr, align 8
  %7 = alloca ptr, align 8
  %8 = alloca i32, align 4
  %9 = alloca ptr, align 8
  %10 = alloca i32, align 4
  %11 = alloca i32, align 4
  %12 = alloca i32, align 4
  %13 = alloca ptr, align 8
  %14 = alloca %struct.mbim_pair_list, align 4
  %15 = alloca ptr, align 8
  store ptr %0, ptr %5, align 8
  store ptr %1, ptr %6, align 8
  store ptr %2, ptr %7, align 8
  store i32 %3, ptr %8, align 4
  %16 = load i32, ptr %8, align 4
  store i32 %16, ptr %10, align 4
  %17 = load ptr, ptr %7, align 8
  %18 = load i32, ptr @hf_mbim_device_services_info_device_services_count, align 4
  %19 = load ptr, ptr %5, align 8
  %20 = load i32, ptr %8, align 4
  %21 = call ptr @proto_tree_add_item_ret_uint(ptr noundef %17, i32 noundef %18, ptr noundef %19, i32 noundef %20, i32 noundef 4, i32 noundef -2147483648, ptr noundef %12)
  %22 = load i32, ptr %8, align 4
  %23 = add i32 %22, 4
  store i32 %23, ptr %8, align 4
  %24 = load ptr, ptr %7, align 8
  %25 = load i32, ptr @hf_mbim_device_services_info_max_dss_sessions, align 4
  %26 = load ptr, ptr %5, align 8
  %27 = load i32, ptr %8, align 4
  %28 = call ptr @proto_tree_add_item(ptr noundef %24, i32 noundef %25, ptr noundef %26, i32 noundef %27, i32 noundef 4, i32 noundef -2147483648)
  %29 = load i32, ptr %8, align 4
  %30 = add i32 %29, 4
  store i32 %30, ptr %8, align 4
  %31 = load i32, ptr %12, align 4
  %32 = icmp ne i32 %31, 0
  br i1 %32, label %33, label %116

33:                                               ; preds = %4
  %34 = load ptr, ptr %6, align 8
  %35 = getelementptr inbounds %struct._packet_info, ptr %34, i32 0, i32 50
  %36 = load ptr, ptr %35, align 8
  %37 = call noalias ptr @wmem_array_new(ptr noundef %36, i64 noundef 8)
  store ptr %37, ptr %13, align 8
  %38 = load ptr, ptr %7, align 8
  %39 = load ptr, ptr %5, align 8
  %40 = load i32, ptr %8, align 4
  %41 = load i32, ptr %12, align 4
  %42 = mul i32 8, %41
  %43 = load i32, ptr @ett_mbim_pair_list, align 4
  %44 = call ptr @proto_tree_add_subtree(ptr noundef %38, ptr noundef %39, i32 noundef %40, i32 noundef %42, i32 noundef %43, ptr noundef null, ptr noundef @.str.2590)
  store ptr %44, ptr %9, align 8
  store i32 0, ptr %11, align 4
  br label %45

45:                                               ; preds = %67, %33
  %46 = load i32, ptr %11, align 4
  %47 = load i32, ptr %12, align 4
  %48 = icmp ult i32 %46, %47
  br i1 %48, label %49, label %70

49:                                               ; preds = %45
  %50 = load ptr, ptr %9, align 8
  %51 = load i32, ptr @hf_mbim_device_services_info_device_services_offset, align 4
  %52 = load ptr, ptr %5, align 8
  %53 = load i32, ptr %8, align 4
  %54 = getelementptr inbounds %struct.mbim_pair_list, ptr %14, i32 0, i32 0
  %55 = call ptr @proto_tree_add_item_ret_uint(ptr noundef %50, i32 noundef %51, ptr noundef %52, i32 noundef %53, i32 noundef 4, i32 noundef -2147483648, ptr noundef %54)
  %56 = load i32, ptr %8, align 4
  %57 = add i32 %56, 4
  store i32 %57, ptr %8, align 4
  %58 = load ptr, ptr %9, align 8
  %59 = load i32, ptr @hf_mbim_device_services_info_device_services_size, align 4
  %60 = load ptr, ptr %5, align 8
  %61 = load i32, ptr %8, align 4
  %62 = getelementptr inbounds %struct.mbim_pair_list, ptr %14, i32 0, i32 1
  %63 = call ptr @proto_tree_add_item_ret_uint(ptr noundef %58, i32 noundef %59, ptr noundef %60, i32 noundef %61, i32 noundef 4, i32 noundef -2147483648, ptr noundef %62)
  %64 = load i32, ptr %8, align 4
  %65 = add i32 %64, 4
  store i32 %65, ptr %8, align 4
  %66 = load ptr, ptr %13, align 8
  call void @wmem_array_append(ptr noundef %66, ptr noundef %14, i32 noundef 1)
  br label %67

67:                                               ; preds = %49
  %68 = load i32, ptr %11, align 4
  %69 = add i32 %68, 1
  store i32 %69, ptr %11, align 4
  br label %45, !llvm.loop !38

70:                                               ; preds = %45
  store i32 0, ptr %11, align 4
  br label %71

71:                                               ; preds = %112, %70
  %72 = load i32, ptr %11, align 4
  %73 = load i32, ptr %12, align 4
  %74 = icmp ult i32 %72, %73
  br i1 %74, label %75, label %115

75:                                               ; preds = %71
  %76 = load ptr, ptr %13, align 8
  %77 = load i32, ptr %11, align 4
  %78 = call ptr @wmem_array_index(ptr noundef %76, i32 noundef %77)
  store ptr %78, ptr %15, align 8
  %79 = load ptr, ptr %15, align 8
  %80 = getelementptr inbounds %struct.mbim_pair_list, ptr %79, i32 0, i32 0
  %81 = load i32, ptr %80, align 4
  %82 = icmp ne i32 %81, 0
  br i1 %82, label %83, label %111

83:                                               ; preds = %75
  %84 = load ptr, ptr %15, align 8
  %85 = getelementptr inbounds %struct.mbim_pair_list, ptr %84, i32 0, i32 1
  %86 = load i32, ptr %85, align 4
  %87 = icmp ne i32 %86, 0
  br i1 %87, label %88, label %111

88:                                               ; preds = %83
  %89 = load ptr, ptr %7, align 8
  %90 = load ptr, ptr %5, align 8
  %91 = load i32, ptr %10, align 4
  %92 = load ptr, ptr %15, align 8
  %93 = getelementptr inbounds %struct.mbim_pair_list, ptr %92, i32 0, i32 0
  %94 = load i32, ptr %93, align 4
  %95 = add i32 %91, %94
  %96 = load ptr, ptr %15, align 8
  %97 = getelementptr inbounds %struct.mbim_pair_list, ptr %96, i32 0, i32 1
  %98 = load i32, ptr %97, align 4
  %99 = load i32, ptr @ett_mbim_pair_list, align 4
  %100 = load i32, ptr %11, align 4
  %101 = add i32 %100, 1
  %102 = call ptr (ptr, ptr, i32, i32, i32, ptr, ptr, ...) @proto_tree_add_subtree_format(ptr noundef %89, ptr noundef %90, i32 noundef %95, i32 noundef %98, i32 noundef %99, ptr noundef null, ptr noundef @.str.2564, i32 noundef %101)
  store ptr %102, ptr %9, align 8
  %103 = load ptr, ptr %5, align 8
  %104 = load ptr, ptr %6, align 8
  %105 = load ptr, ptr %9, align 8
  %106 = load i32, ptr %10, align 4
  %107 = load ptr, ptr %15, align 8
  %108 = getelementptr inbounds %struct.mbim_pair_list, ptr %107, i32 0, i32 0
  %109 = load i32, ptr %108, align 4
  %110 = add i32 %106, %109
  call void @mbim_dissect_device_service_element(ptr noundef %103, ptr noundef %104, ptr noundef %105, i32 noundef %110)
  br label %111

111:                                              ; preds = %88, %83, %75
  br label %112

112:                                              ; preds = %111
  %113 = load i32, ptr %11, align 4
  %114 = add i32 %113, 1
  store i32 %114, ptr %11, align 4
  br label %71, !llvm.loop !39

115:                                              ; preds = %71
  br label %116

116:                                              ; preds = %115, %4
  ret void
}