; Function Attrs: nounwind uwtable
define internal fastcc void @mbim_dissect_device_services_info(ptr noundef %0, ptr noundef readonly captures(none) %1, ptr noundef %2, i32 noundef %3) unnamed_addr #0 {
  %5 = alloca i32, align 4
  %6 = alloca i32, align 4
  %7 = alloca ptr, align 8
  %8 = alloca i32, align 4
  %9 = alloca %struct.mbim_pair_list, align 4
  %10 = load i32, ptr @hf_mbim_device_services_info_device_services_count, align 4
  %11 = call ptr @proto_tree_add_item_ret_uint(ptr noundef %2, i32 noundef %10, ptr noundef %0, i32 noundef %3, i32 noundef 4, i32 noundef -2147483648, ptr noundef nonnull %8) #10
  %12 = add i32 %3, 4
  %13 = load i32, ptr @hf_mbim_device_services_info_max_dss_sessions, align 4
  %14 = call ptr @proto_tree_add_item(ptr noundef %2, i32 noundef %13, ptr noundef %0, i32 noundef %12, i32 noundef 4, i32 noundef -2147483648) #10
  %15 = load i32, ptr %8, align 4
  %.not = icmp eq i32 %15, 0
  br i1 %.not, label %.loopexit, label %16

16:                                               ; preds = %4
  %17 = add i32 %3, 8
  %18 = getelementptr inbounds nuw i8, ptr %1, i64 408
  %19 = load ptr, ptr %18, align 8
  %20 = call noalias ptr @wmem_array_new(ptr noundef %19, i64 noundef 8) #10
  %21 = load i32, ptr %8, align 4
  %22 = shl i32 %21, 3
  %23 = load i32, ptr @ett_mbim_pair_list, align 4
  %24 = call ptr @proto_tree_add_subtree(ptr noundef %2, ptr noundef %0, i32 noundef %17, i32 noundef %22, i32 noundef %23, ptr noundef null, ptr noundef nonnull @.str.2590) #10
  %25 = load i32, ptr %8, align 4
  %.not52 = icmp eq i32 %25, 0
  br i1 %.not52, label %.loopexit, label %.lr.ph

.lr.ph:                                           ; preds = %16
  %26 = getelementptr inbounds nuw i8, ptr %9, i64 4
  br label %28

.preheader:                                       ; preds = %28
  %27 = icmp eq i32 %36, 0
  br i1 %27, label %.loopexit, label %.lr.ph51

28:                                               ; preds = %.lr.ph, %28
  %.049 = phi i32 [ %17, %.lr.ph ], [ %34, %28 ]
  %.04048 = phi i32 [ 0, %.lr.ph ], [ %35, %28 ]
  %29 = load i32, ptr @hf_mbim_device_services_info_device_services_offset, align 4
  %30 = call ptr @proto_tree_add_item_ret_uint(ptr noundef %24, i32 noundef %29, ptr noundef %0, i32 noundef %.049, i32 noundef 4, i32 noundef -2147483648, ptr noundef nonnull %9) #10
  %31 = add i32 %.049, 4
  %32 = load i32, ptr @hf_mbim_device_services_info_device_services_size, align 4
  %33 = call ptr @proto_tree_add_item_ret_uint(ptr noundef %24, i32 noundef %32, ptr noundef %0, i32 noundef %31, i32 noundef 4, i32 noundef -2147483648, ptr noundef nonnull %26) #10
  %34 = add i32 %.049, 8
  call void @wmem_array_append(ptr noundef %20, ptr noundef nonnull %9, i32 noundef 1) #10
  %35 = add nuw i32 %.04048, 1
  %36 = load i32, ptr %8, align 4
  %37 = icmp ult i32 %35, %36
  br i1 %37, label %28, label %.preheader, !llvm.loop !41

.lr.ph51:                                         ; preds = %.preheader, %110
  %.150 = phi i32 [ %111, %110 ], [ 0, %.preheader ]
  %38 = call ptr @wmem_array_index(ptr noundef %20, i32 noundef %.150) #10
  %39 = load i32, ptr %38, align 4
  %.not43 = icmp eq i32 %39, 0
  br i1 %.not43, label %110, label %40

40:                                               ; preds = %.lr.ph51
  %41 = getelementptr inbounds nuw i8, ptr %38, i64 4
  %42 = load i32, ptr %41, align 4
  %.not44 = icmp eq i32 %42, 0
  br i1 %.not44, label %110, label %43

43:                                               ; preds = %40
  %44 = add i32 %39, %3
  %45 = load i32, ptr @ett_mbim_pair_list, align 4
  %46 = add nuw i32 %.150, 1
  %47 = call ptr (ptr, ptr, i32, i32, i32, ptr, ptr, ...) @proto_tree_add_subtree_format(ptr noundef %2, ptr noundef %0, i32 noundef %44, i32 noundef %42, i32 noundef %45, ptr noundef null, ptr noundef nonnull @.str.2564, i32 noundef %46) #10
  %48 = load i32, ptr %38, align 4
  %49 = add i32 %48, %3
  call void @llvm.lifetime.start.p0(i64 4, ptr nonnull %5)
  call void @llvm.lifetime.start.p0(i64 4, ptr nonnull %6)
  call void @llvm.lifetime.start.p0(i64 8, ptr nonnull %7)
  store i32 %49, ptr %5, align 4
  store ptr null, ptr %7, align 8
  %50 = load i32, ptr @hf_mbim_device_service_element_device_service_id, align 4
  %51 = call fastcc zeroext i8 @mbim_dissect_service_id_uuid(ptr noundef %0, ptr noundef readonly %1, ptr noundef %47, i32 noundef %50, ptr noundef %5, ptr noundef nonnull %7, i32 noundef 1)
  %52 = load i32, ptr %5, align 4
  %53 = load i32, ptr @hf_mbim_device_service_element_dss_payload, align 4
  %54 = load i32, ptr @ett_mbim_bitmap, align 4
  %55 = call ptr @proto_tree_add_bitmask(ptr noundef %47, ptr noundef %0, i32 noundef %52, i32 noundef %53, i32 noundef %54, ptr noundef nonnull @mbim_device_service_element_dss_payload_fields, i32 noundef -2147483648) #10
  %56 = add i32 %52, 4
  %57 = load i32, ptr @hf_mbim_device_service_element_max_dss_instances, align 4
  %58 = call ptr @proto_tree_add_item(ptr noundef %47, i32 noundef %57, ptr noundef %0, i32 noundef %56, i32 noundef 4, i32 noundef -2147483648) #10
  %59 = add i32 %52, 8
  %60 = load i32, ptr @hf_mbim_device_service_element_cid_count, align 4
  %61 = call ptr @proto_tree_add_item_ret_uint(ptr noundef %47, i32 noundef %60, ptr noundef %0, i32 noundef %59, i32 noundef 4, i32 noundef -2147483648, ptr noundef nonnull %6) #10
  %62 = add i32 %52, 12
  %63 = load i32, ptr %6, align 4
  %.not.i = icmp eq i32 %63, 0
  br i1 %.not.i, label %mbim_dissect_device_service_element.exit, label %.lr.ph.i

.lr.ph.i:                                         ; preds = %43
  %64 = icmp ult i8 %51, 25
  %65 = zext nneg i8 %51 to i64
  %66 = getelementptr [25 x %struct.mbim_uuid_info_], ptr @mbim_uuid_info, i64 0, i64 %65
  %67 = getelementptr inbounds nuw i8, ptr %66, i64 8
  br i1 %64, label %.lr.ph.split.us.i, label %.lr.ph.split.i

.lr.ph.split.us.i:                                ; preds = %.lr.ph.i
  %68 = getelementptr inbounds nuw i8, ptr %66, i64 16
  %69 = load ptr, ptr %68, align 8
  %70 = icmp eq ptr %69, null
  br i1 %70, label %.lr.ph.split.us.split.us.i, label %.lr.ph.split.us.split.preheader.i

.lr.ph.split.us.split.us.i:                       ; preds = %.lr.ph.split.us.i, %.lr.ph.split.us.split.us.i
  %.036.us.us.i = phi i32 [ %78, %.lr.ph.split.us.split.us.i ], [ 0, %.lr.ph.split.us.i ]
  %71 = phi i32 [ %77, %.lr.ph.split.us.split.us.i ], [ %62, %.lr.ph.split.us.i ]
  %72 = call i32 @tvb_get_letohl(ptr noundef %0, i32 noundef %71) #10
  %73 = load i32, ptr @hf_mbim_device_service_element_cid, align 4
  %74 = load ptr, ptr %67, align 8
  %75 = call ptr @val_to_str_const(i32 noundef %72, ptr noundef %74, ptr noundef nonnull @.str.1966) #10
  %76 = call ptr (ptr, i32, ptr, i32, i32, i32, ptr, ...) @proto_tree_add_uint_format_value(ptr noundef %47, i32 noundef %73, ptr noundef %0, i32 noundef %71, i32 noundef 4, i32 noundef %72, ptr noundef nonnull @.str.2531, ptr noundef %75, i32 noundef %72) #10
  %77 = add i32 %71, 4
  %78 = add nuw i32 %.036.us.us.i, 1
  %79 = load i32, ptr %6, align 4
  %80 = icmp ult i32 %78, %79
  br i1 %80, label %.lr.ph.split.us.split.us.i, label %mbim_dissect_device_service_element.exit, !llvm.loop !42

.lr.ph.split.us.split.preheader.i:                ; preds = %.lr.ph.split.us.i, %.lr.ph.split.us.split.preheader.i
  %.036.us.i = phi i32 [ %87, %.lr.ph.split.us.split.preheader.i ], [ 0, %.lr.ph.split.us.i ]
  %81 = phi i32 [ %86, %.lr.ph.split.us.split.preheader.i ], [ %62, %.lr.ph.split.us.i ]
  %82 = call i32 @tvb_get_letohl(ptr noundef %0, i32 noundef %81) #10
  %83 = load i32, ptr @hf_mbim_device_service_element_cid, align 4
  %84 = call ptr @val_to_str_ext_const(i32 noundef %82, ptr noundef nonnull %69, ptr noundef nonnull @.str.1966) #10
  %85 = call ptr (ptr, i32, ptr, i32, i32, i32, ptr, ...) @proto_tree_add_uint_format_value(ptr noundef %47, i32 noundef %83, ptr noundef %0, i32 noundef %81, i32 noundef 4, i32 noundef %82, ptr noundef nonnull @.str.2531, ptr noundef %84, i32 noundef %82) #10
  %.pre.i = load i32, ptr %6, align 4
  %86 = add i32 %81, 4
  %87 = add nuw i32 %.036.us.i, 1
  %88 = icmp ult i32 %87, %.pre.i
  br i1 %88, label %.lr.ph.split.us.split.preheader.i, label %mbim_dissect_device_service_element.exit, !llvm.loop !43

.lr.ph.split.i:                                   ; preds = %.lr.ph.i
  %89 = icmp eq i8 %51, -1
  br i1 %89, label %.lr.ph.split.split.us.i, label %.lr.ph.split.split.i

.lr.ph.split.split.us.i:                          ; preds = %.lr.ph.split.i, %.lr.ph.split.split.us.i
  %.036.us37.i = phi i32 [ %99, %.lr.ph.split.split.us.i ], [ 0, %.lr.ph.split.i ]
  %90 = phi i32 [ %98, %.lr.ph.split.split.us.i ], [ %62, %.lr.ph.split.i ]
  %91 = call i32 @tvb_get_letohl(ptr noundef %0, i32 noundef %90) #10
  %92 = load i32, ptr @hf_mbim_device_service_element_cid, align 4
  %93 = load ptr, ptr %7, align 8
  %94 = getelementptr inbounds nuw i8, ptr %93, i64 24
  %95 = load ptr, ptr %94, align 8
  %96 = call ptr @val_to_str_const(i32 noundef %91, ptr noundef %95, ptr noundef nonnull @.str.1966) #10
  %97 = call ptr (ptr, i32, ptr, i32, i32, i32, ptr, ...) @proto_tree_add_uint_format_value(ptr noundef %47, i32 noundef %92, ptr noundef %0, i32 noundef %90, i32 noundef 4, i32 noundef %91, ptr noundef nonnull @.str.2531, ptr noundef %96, i32 noundef %91) #10
  %98 = add i32 %90, 4
  %99 = add nuw i32 %.036.us37.i, 1
  %100 = load i32, ptr %6, align 4
  %101 = icmp ult i32 %99, %100
  br i1 %101, label %.lr.ph.split.split.us.i, label %mbim_dissect_device_service_element.exit, !llvm.loop !42

.lr.ph.split.split.i:                             ; preds = %.lr.ph.split.i, %.lr.ph.split.split.i
  %.036.i = phi i32 [ %107, %.lr.ph.split.split.i ], [ 0, %.lr.ph.split.i ]
  %102 = phi i32 [ %106, %.lr.ph.split.split.i ], [ %62, %.lr.ph.split.i ]
  %103 = call i32 @tvb_get_letohl(ptr noundef %0, i32 noundef %102) #10
  %104 = load i32, ptr @hf_mbim_device_service_element_cid, align 4
  %105 = call ptr @proto_tree_add_uint(ptr noundef %47, i32 noundef %104, ptr noundef %0, i32 noundef %102, i32 noundef 4, i32 noundef %103) #10
  %106 = add i32 %102, 4
  %107 = add nuw i32 %.036.i, 1
  %108 = load i32, ptr %6, align 4
  %109 = icmp ult i32 %107, %108
  br i1 %109, label %.lr.ph.split.split.i, label %mbim_dissect_device_service_element.exit, !llvm.loop !42

mbim_dissect_device_service_element.exit:         ; preds = %.lr.ph.split.split.i, %.lr.ph.split.split.us.i, %.lr.ph.split.us.split.preheader.i, %.lr.ph.split.us.split.us.i, %43
  call void @llvm.lifetime.end.p0(i64 4, ptr nonnull %5)
  call void @llvm.lifetime.end.p0(i64 4, ptr nonnull %6)
  call void @llvm.lifetime.end.p0(i64 8, ptr nonnull %7)
  br label %110

110:                                              ; preds = %.lr.ph51, %40, %mbim_dissect_device_service_element.exit
  %111 = add nuw i32 %.150, 1
  %112 = load i32, ptr %8, align 4
  %113 = icmp ult i32 %111, %112
  br i1 %113, label %.lr.ph51, label %.loopexit, !llvm.loop !44

.loopexit:                                        ; preds = %110, %16, %.preheader, %4
  ret void
}